; Function Attrs: nounwind uwtable
define internal range(i32 -22, 1) i32 @opt_format(ptr readnone captures(none) %0, ptr readnone captures(none) %1, ptr noundef %2) #0 {
  %4 = tail call ptr @av_find_input_format(ptr noundef %2) #20
  store ptr %4, ptr @iformat, align 8, !tbaa !75
  %.not = icmp eq ptr %4, null
  br i1 %.not, label %5, label %6

5:                                                ; preds = %3
  tail call void (ptr, i32, ptr, ...) @av_log(ptr noundef null, i32 noundef 16, ptr noundef nonnull @.str.160, ptr noundef %2) #20
  br label %6

6:                                                ; preds = %3, %5
  %.0 = phi i32 [ -22, %5 ], [ 0, %3 ]
  ret i32 %.0
}